target datalayout = "e-m:e-p270:32:32-p271:32:32-p272:64:64-i64:64-i128:128-f80:128-n8:16:32:64-S128"
target triple = "x86_64-pc-linux-gnu"

%struct.slurmdb_qos_rec_t = type { i64, ptr, i32, i32, i32, i32, i32, i32, ptr, ptr, ptr, ptr, ptr, ptr, i32, double, i32, i32, i32, i32, i32, i32, ptr, ptr, ptr, ptr, ptr, ptr, ptr, ptr, ptr, ptr, ptr, ptr, ptr, ptr, i32, i32, ptr, ptr, ptr, ptr, ptr, i16, i32, i32, ptr, ptr, double, double }

@.str.9 = private unnamed_addr constant [32 x i8] c"We need a qos list to translate\00", align 1
@.str.10 = private unnamed_addr constant [9 x i8] c"no level\00", align 1

; Function Attrs: nounwind uwtable
define dso_local i32 @str_2_slurmdb_qos(ptr noundef %0, ptr noundef %1) #0 {
  %3 = alloca i32, align 4
  %4 = alloca ptr, align 8
  %5 = alloca ptr, align 8
  %6 = alloca ptr, align 8
  %7 = alloca ptr, align 8
  %8 = alloca ptr, align 8
  %9 = alloca i32, align 4
  store ptr %0, ptr %4, align 8
  store ptr %1, ptr %5, align 8
  call void @llvm.lifetime.start.p0(i64 8, ptr %6) #10
  store ptr null, ptr %6, align 8
  call void @llvm.lifetime.start.p0(i64 8, ptr %7) #10
  store ptr null, ptr %7, align 8
  call void @llvm.lifetime.start.p0(i64 8, ptr %8) #10
  store ptr null, ptr %8, align 8
  %10 = load ptr, ptr %4, align 8
  %11 = icmp ne ptr %10, null
  br i1 %11, label %14, label %12

12:                                               ; preds = %2
  %13 = call i32 (ptr, ...) @error(ptr noundef @.str.9)
  store i32 -2, ptr %3, align 4
  store i32 1, ptr %9, align 4
  br label %71

14:                                               ; preds = %2
  %15 = load ptr, ptr %5, align 8
  %16 = icmp ne ptr %15, null
  br i1 %16, label %28, label %17

17:                                               ; preds = %14
  br label %18

18:                                               ; preds = %17
  br label %19

19:                                               ; preds = %18
  %20 = call i32 @get_log_level()
  %21 = icmp sge i32 %20, 6
  br i1 %21, label %22, label %23

22:                                               ; preds = %19
  call void (i32, ptr, ...) @log_var(i32 noundef 6, ptr noundef @.str.10)
  br label %23

23:                                               ; preds = %22, %19
  br label %24

24:                                               ; preds = %23
  br label %25

25:                                               ; preds = %24
  br label %26

26:                                               ; preds = %25
  br label %27

27:                                               ; preds = %26
  store i32 0, ptr %3, align 4
  store i32 1, ptr %9, align 4
  br label %71

28:                                               ; preds = %14
  br label %29

29:                                               ; preds = %28
  %30 = load ptr, ptr %5, align 8
  %31 = getelementptr inbounds i8, ptr %30, i64 0
  %32 = load i8, ptr %31, align 1
  %33 = sext i8 %32 to i32
  %34 = icmp eq i32 %33, 43
  br i1 %34, label %41, label %35

35:                                               ; preds = %29
  %36 = load ptr, ptr %5, align 8
  %37 = getelementptr inbounds i8, ptr %36, i64 0
  %38 = load i8, ptr %37, align 1
  %39 = sext i8 %38 to i32
  %40 = icmp eq i32 %39, 45
  br i1 %40, label %41, label %44

41:                                               ; preds = %35, %29
  %42 = load ptr, ptr %5, align 8
  %43 = getelementptr inbounds i8, ptr %42, i64 1
  store ptr %43, ptr %8, align 8
  br label %46

44:                                               ; preds = %35
  %45 = load ptr, ptr %5, align 8
  store ptr %45, ptr %8, align 8
  br label %46

46:                                               ; preds = %44, %41
  %47 = load ptr, ptr %4, align 8
  %48 = call ptr @list_iterator_create(ptr noundef %47)
  store ptr %48, ptr %6, align 8
  br label %49

49:                                               ; preds = %61, %46
  %50 = load ptr, ptr %6, align 8
  %51 = call ptr @list_next(ptr noundef %50)
  store ptr %51, ptr %7, align 8
  %52 = icmp ne ptr %51, null
  br i1 %52, label %53, label %62

53:                                               ; preds = %49
  %54 = load ptr, ptr %8, align 8
  %55 = load ptr, ptr %7, align 8
  %56 = getelementptr inbounds nuw %struct.slurmdb_qos_rec_t, ptr %55, i32 0, i32 40
  %57 = load ptr, ptr %56, align 8
  %58 = call i32 @xstrcasecmp(ptr noundef %54, ptr noundef %57)
  %59 = icmp ne i32 %58, 0
  br i1 %59, label %61, label %60

60:                                               ; preds = %53
  br label %62

61:                                               ; preds = %53
  br label %49, !llvm.loop !17

62:                                               ; preds = %60, %49
  %63 = load ptr, ptr %6, align 8
  call void @list_iterator_destroy(ptr noundef %63)
  %64 = load ptr, ptr %7, align 8
  %65 = icmp ne ptr %64, null
  br i1 %65, label %66, label %70

66:                                               ; preds = %62
  %67 = load ptr, ptr %7, align 8
  %68 = getelementptr inbounds nuw %struct.slurmdb_qos_rec_t, ptr %67, i32 0, i32 2
  %69 = load i32, ptr %68, align 8
  store i32 %69, ptr %3, align 4
  store i32 1, ptr %9, align 4
  br label %71

70:                                               ; preds = %62
  store i32 -2, ptr %3, align 4
  store i32 1, ptr %9, align 4
  br label %71

71:                                               ; preds = %70, %66, %27, %12
  call void @llvm.lifetime.end.p0(i64 8, ptr %8) #10
  call void @llvm.lifetime.end.p0(i64 8, ptr %7) #10
  call void @llvm.lifetime.end.p0(i64 8, ptr %6) #10
  %72 = load i32, ptr %3, align 4
  ret i32 %72
}