; Function Attrs: nounwind uwtable
define dso_local i32 @str_2_slurmdb_qos(ptr noundef %0, ptr noundef %1) local_unnamed_addr #0 {
  %.not = icmp eq ptr %0, null
  br i1 %.not, label %3, label %5

3:                                                ; preds = %2
  %4 = tail call i32 (ptr, ...) @error(ptr noundef nonnull @.str.9) #19
  br label %25

5:                                                ; preds = %2
  %.not18 = icmp eq ptr %1, null
  br i1 %.not18, label %6, label %10

6:                                                ; preds = %5
  %7 = tail call i32 @get_log_level() #19
  %8 = icmp sgt i32 %7, 5
  br i1 %8, label %9, label %25

9:                                                ; preds = %6
  tail call void (i32, ptr, ...) @log_var(i32 noundef 6, ptr noundef nonnull @.str.10) #19
  br label %25

10:                                               ; preds = %5
  %11 = load i8, ptr %1, align 1
  switch i8 %11, label %14 [
    i8 43, label %12
    i8 45, label %12
  ]

12:                                               ; preds = %10, %10
  %13 = getelementptr inbounds nuw i8, ptr %1, i64 1
  br label %14

14:                                               ; preds = %10, %12
  %.0 = phi ptr [ %13, %12 ], [ %1, %10 ]
  %15 = tail call ptr @list_iterator_create(ptr noundef nonnull %0) #19
  br label %16

16:                                               ; preds = %18, %14
  %17 = tail call ptr @list_next(ptr noundef %15) #19
  %.not19 = icmp eq ptr %17, null
  br i1 %.not19, label %.critedge, label %18

18:                                               ; preds = %16
  %19 = getelementptr inbounds nuw i8, ptr %17, i64 264
  %20 = load ptr, ptr %19, align 8
  %21 = tail call i32 @xstrcasecmp(ptr noundef nonnull %.0, ptr noundef %20) #19
  %.not20 = icmp eq i32 %21, 0
  br i1 %.not20, label %22, label %16, !llvm.loop !15

22:                                               ; preds = %18
  tail call void @list_iterator_destroy(ptr noundef %15) #19
  %23 = getelementptr inbounds nuw i8, ptr %17, i64 16
  %24 = load i32, ptr %23, align 8
  br label %25

.critedge:                                        ; preds = %16
  tail call void @list_iterator_destroy(ptr noundef %15) #19
  br label %25

25:                                               ; preds = %.critedge, %6, %9, %22, %3
  %.013 = phi i32 [ %24, %22 ], [ -2, %3 ], [ 0, %9 ], [ 0, %6 ], [ -2, %.critedge ]
  ret i32 %.013
}